; Function Attrs: mustprogress nounwind uwtable
define hidden void @_ZN4cvc58internal6theory11quantifiers27QuantifiersInferenceManagerD0Ev(ptr noundef nonnull align 8 dereferenceable(376) %this) unnamed_addr #6 align 2 personality ptr @__gxx_personality_v0 {
entry:
  store ptr getelementptr inbounds ({ [10 x ptr] }, ptr @_ZTVN4cvc58internal6theory11quantifiers27QuantifiersInferenceManagerE, i64 0, i32 0, i64 2), ptr %this, align 8
  %d_skolemize.i = getelementptr inbounds i8, ptr %this, i64 368
  %0 = load ptr, ptr %d_skolemize.i, align 8
  %cmp.not.i.i = icmp eq ptr %0, null
  br i1 %cmp.not.i.i, label %_ZNSt10unique_ptrIN4cvc58internal6theory11quantifiers9SkolemizeESt14default_deleteIS4_EED2Ev.exit.i, label %_ZNKSt14default_deleteIN4cvc58internal6theory11quantifiers9SkolemizeEEclEPS4_.exit.i.i

_ZNKSt14default_deleteIN4cvc58internal6theory11quantifiers9SkolemizeEEclEPS4_.exit.i.i: ; preds = %entry
  %vtable.i.i.i = load ptr, ptr %0, align 8
  %vfn.i.i.i = getelementptr inbounds i8, ptr %vtable.i.i.i, i64 8
  %1 = load ptr, ptr %vfn.i.i.i, align 8
  tail call void %1(ptr noundef nonnull align 8 dereferenceable(264) %0) #10
  br label %_ZNSt10unique_ptrIN4cvc58internal6theory11quantifiers9SkolemizeESt14default_deleteIS4_EED2Ev.exit.i

_ZNSt10unique_ptrIN4cvc58internal6theory11quantifiers9SkolemizeESt14default_deleteIS4_EED2Ev.exit.i: ; preds = %_ZNKSt14default_deleteIN4cvc58internal6theory11quantifiers9SkolemizeEEclEPS4_.exit.i.i, %entry
  store ptr null, ptr %d_skolemize.i, align 8
  %d_instantiate.i = getelementptr inbounds i8, ptr %this, i64 360
  %2 = load ptr, ptr %d_instantiate.i, align 8
  %cmp.not.i1.i = icmp eq ptr %2, null
  br i1 %cmp.not.i1.i, label %_ZN4cvc58internal6theory11quantifiers27QuantifiersInferenceManagerD2Ev.exit, label %_ZNKSt14default_deleteIN4cvc58internal6theory11quantifiers11InstantiateEEclEPS4_.exit.i.i

_ZNKSt14default_deleteIN4cvc58internal6theory11quantifiers11InstantiateEEclEPS4_.exit.i.i: ; preds = %_ZNSt10unique_ptrIN4cvc58internal6theory11quantifiers9SkolemizeESt14default_deleteIS4_EED2Ev.exit.i
  %vtable.i.i2.i = load ptr, ptr %2, align 8
  %vfn.i.i3.i = getelementptr inbounds i8, ptr %vtable.i.i2.i, i64 8
  %3 = load ptr, ptr %vfn.i.i3.i, align 8
  tail call void %3(ptr noundef nonnull align 8 dereferenceable(472) %2) #10
  br label %_ZN4cvc58internal6theory11quantifiers27QuantifiersInferenceManagerD2Ev.exit

_ZN4cvc58internal6theory11quantifiers27QuantifiersInferenceManagerD2Ev.exit: ; preds = %_ZNSt10unique_ptrIN4cvc58internal6theory11quantifiers9SkolemizeESt14default_deleteIS4_EED2Ev.exit.i, %_ZNKSt14default_deleteIN4cvc58internal6theory11quantifiers11InstantiateEEclEPS4_.exit.i.i
  store ptr null, ptr %d_instantiate.i, align 8
  tail call void @_ZN4cvc58internal6theory24InferenceManagerBufferedD2Ev(ptr noundef nonnull align 8 dereferenceable(353) %this) #10
  tail call void @_ZdlPv(ptr noundef nonnull %this) #12
  ret void
}